target datalayout = "e-m:e-p270:32:32-p271:32:32-p272:64:64-i64:64-i128:128-f80:128-n8:16:32:64-S128"
target triple = "x86_64-pc-linux-gnu"

@.str.120 = private unnamed_addr constant [8 x i8] c"%%s: %s\00", align 1
@.str.121 = private unnamed_addr constant [9 x i8] c"%s: %.3f\00", align 1

; Function Attrs: mustprogress uwtable
define void @_ZN5ImGui5ValueEPKcfS1_(ptr noundef %0, float noundef %1, ptr noundef %2) #9 {
  %4 = alloca ptr, align 8
  %5 = alloca float, align 4
  %6 = alloca ptr, align 8
  %7 = alloca [64 x i8], align 16
  store ptr %0, ptr %4, align 8, !tbaa !3
  store float %1, ptr %5, align 4, !tbaa !69
  store ptr %2, ptr %6, align 8, !tbaa !3
  %8 = load ptr, ptr %6, align 8, !tbaa !3
  %9 = icmp ne ptr %8, null
  br i1 %9, label %10, label %18

10:                                               ; preds = %3
  call void @llvm.lifetime.start.p0(i64 64, ptr %7) #17
  %11 = getelementptr inbounds [64 x i8], ptr %7, i64 0, i64 0
  %12 = load ptr, ptr %6, align 8, !tbaa !3
  %13 = call noundef i32 (ptr, i64, ptr, ...) @_Z14ImFormatStringPcmPKcz(ptr noundef %11, i64 noundef 64, ptr noundef @.str.120, ptr noundef %12)
  %14 = getelementptr inbounds [64 x i8], ptr %7, i64 0, i64 0
  %15 = load ptr, ptr %4, align 8, !tbaa !3
  %16 = load float, ptr %5, align 4, !tbaa !69
  %17 = fpext float %16 to double
  call void (ptr, ...) @_ZN5ImGui4TextEPKcz(ptr noundef %14, ptr noundef %15, double noundef %17)
  call void @llvm.lifetime.end.p0(i64 64, ptr %7) #17
  br label %22

18:                                               ; preds = %3
  %19 = load ptr, ptr %4, align 8, !tbaa !3
  %20 = load float, ptr %5, align 4, !tbaa !69
  %21 = fpext float %20 to double
  call void (ptr, ...) @_ZN5ImGui4TextEPKcz(ptr noundef @.str.121, ptr noundef %19, double noundef %21)
  br label %22

22:                                               ; preds = %18, %10
  ret void
}