; Function Attrs: mustprogress uwtable
define void @_ZN5ImGui5ValueEPKcfS1_(ptr noundef %0, float noundef %1, ptr noundef %2) local_unnamed_addr #6 {
  %4 = alloca [64 x i8], align 16
  %.not = icmp eq ptr %2, null
  br i1 %.not, label %8, label %5

5:                                                ; preds = %3
  call void @llvm.lifetime.start.p0(i64 64, ptr nonnull %4) #44
  %6 = call noundef i32 (ptr, i64, ptr, ...) @_Z14ImFormatStringPcmPKcz(ptr noundef nonnull %4, i64 noundef 64, ptr noundef nonnull @.str.120, ptr noundef nonnull %2)
  %7 = fpext float %1 to double
  call void (ptr, ...) @_ZN5ImGui4TextEPKcz(ptr noundef nonnull %4, ptr noundef %0, double noundef %7)
  call void @llvm.lifetime.end.p0(i64 64, ptr nonnull %4) #44
  br label %10

8:                                                ; preds = %3
  %9 = fpext float %1 to double
  tail call void (ptr, ...) @_ZN5ImGui4TextEPKcz(ptr noundef nonnull @.str.121, ptr noundef %0, double noundef %9)
  br label %10

10:                                               ; preds = %8, %5
  ret void
}